; Function Attrs: mustprogress nounwind uwtable
define hidden noundef ptr @_ZNK5Klass14signature_nameEv(ptr nocapture noundef nonnull readonly align 8 dereferenceable(196) %0) unnamed_addr #0 align 2 {
  %2 = getelementptr inbounds i8, ptr %0, i64 24
  %3 = load ptr, ptr %2, align 8
  %4 = icmp eq ptr %3, null
  br i1 %4, label %.loopexit, label %5

5:                                                ; preds = %1
  %6 = getelementptr inbounds i8, ptr %0, i64 12
  %7 = load i32, ptr %6, align 4
  %8 = icmp eq i32 %7, 6
  br i1 %8, label %9, label %33

9:                                                ; preds = %5
  %10 = getelementptr inbounds i8, ptr %0, i64 224
  %11 = load ptr, ptr %10, align 8
  %12 = getelementptr inbounds i8, ptr %11, i64 164
  %.sroa.0.0.copyload.i.i = load i32, ptr %12, align 4
  %13 = and i32 %.sroa.0.0.copyload.i.i, 67108864
  %.not = icmp eq i32 %13, 0
  br i1 %.not, label %33, label %14

14:                                               ; preds = %9
  %15 = getelementptr inbounds i8, ptr %3, i64 4
  %16 = load i16, ptr %15, align 4
  %17 = zext i16 %16 to i32
  %18 = zext i16 %16 to i64
  %19 = add nuw nsw i64 %18, 1
  %20 = tail call noundef ptr @_Z23resource_allocate_bytesmN17AllocFailStrategy13AllocFailEnumE(i64 noundef %19, i32 noundef 0) #21
  %21 = load ptr, ptr %2, align 8
  %22 = add nuw nsw i32 %17, 1
  %23 = tail call noundef ptr @_ZNK6Symbol11as_C_stringEPci(ptr noundef nonnull align 4 dereferenceable(8) %21, ptr noundef %20, i32 noundef %22) #21
  %.not15 = icmp eq i16 %16, 0
  br i1 %.not15, label %.loopexit, label %.lr.ph

24:                                               ; preds = %.lr.ph
  %25 = add nsw i32 %.014, -1
  %26 = icmp sgt i32 %.014, 1
  br i1 %26, label %.lr.ph, label %.loopexit, !llvm.loop !35

.lr.ph:                                           ; preds = %14, %24
  %.014 = phi i32 [ %25, %24 ], [ %17, %14 ]
  %27 = zext nneg i32 %.014 to i64
  %28 = getelementptr inbounds i8, ptr %20, i64 %27
  %29 = load i8, ptr %28, align 1
  %30 = icmp eq i8 %29, 43
  br i1 %30, label %31, label %24

31:                                               ; preds = %.lr.ph
  %32 = getelementptr inbounds i8, ptr %20, i64 %27
  store i8 46, ptr %32, align 1
  br label %.loopexit

33:                                               ; preds = %9, %5
  %34 = tail call noundef ptr @_ZNK6Symbol11as_C_stringEv(ptr noundef nonnull align 4 dereferenceable(8) %3) #21
  br label %.loopexit

.loopexit:                                        ; preds = %24, %14, %31, %1, %33
  %.012 = phi ptr [ %34, %33 ], [ @.str.18, %1 ], [ %20, %31 ], [ %20, %14 ], [ %20, %24 ]
  ret ptr %.012
}